target datalayout = "e-m:e-p270:32:32-p271:32:32-p272:64:64-i64:64-i128:128-f80:128-n8:16:32:64-S128"
target triple = "x86_64-unknown-linux-gnu"

%"class.sat::literal" = type { i32 }
%"class.bv::solver::var_pos_it" = type { ptr }
%"struct.std::pair.239" = type { i32, i32 }
%"struct.bv::solver::atom" = type { i32, ptr, ptr, %class.svector.237, %"class.sat::literal", %"class.sat::literal" }
%class.svector.237 = type { %class.vector.238 }
%class.vector.238 = type { ptr }
%"struct.bv::solver::var_pos_occ" = type { %"struct.std::pair.239", ptr }
%"class.bv::solver::eqs_iterator" = type { ptr }
%"class.bv::solver::eq_occurs_it" = type { ptr }
%"struct.bv::solver::eq_occurs" = type { i32, i32, i32, i32, i32, %"class.sat::literal", ptr, ptr, ptr }

@.str.5 = private unnamed_addr constant [2 x i8] c" \00", align 1
@.str.10 = private unnamed_addr constant [2 x i8] c"[\00", align 1
@.str.12 = private unnamed_addr constant [2 x i8] c"\0A\00", align 1
@.str.37 = private unnamed_addr constant [3 x i8] c"]\0A\00", align 1

; Function Attrs: mustprogress nounwind uwtable
define linkonce_odr hidden noundef zeroext i1 @_ZNK2bv6solver12eq_occurs_iteqERKS1_(ptr noundef nonnull align 8 dereferenceable(8) %this, ptr noundef nonnull align 8 dereferenceable(8) %other) #4 comdat align 2 {
entry:
  %this.addr = alloca ptr, align 8
  %other.addr = alloca ptr, align 8
  store ptr %this, ptr %this.addr, align 8
  store ptr %other, ptr %other.addr, align 8
  %this1 = load ptr, ptr %this.addr, align 8
  %m_first = getelementptr inbounds %"class.bv::solver::eq_occurs_it", ptr %this1, i32 0, i32 0
  %0 = load ptr, ptr %m_first, align 8
  %1 = load ptr, ptr %other.addr, align 8
  %m_first2 = getelementptr inbounds %"class.bv::solver::eq_occurs_it", ptr %1, i32 0, i32 0
  %2 = load ptr, ptr %m_first2, align 8
  %cmp = icmp eq ptr %0, %2
  ret i1 %cmp
}

; Function Attrs: mustprogress nounwind uwtable
define linkonce_odr hidden void @_ZN2bv6solver12eq_occurs_itC2EPNS0_9eq_occursE(ptr noundef nonnull align 8 dereferenceable(8) %this, ptr noundef %c) unnamed_addr #4 comdat align 2 {
entry:
  %this.addr = alloca ptr, align 8
  %c.addr = alloca ptr, align 8
  store ptr %this, ptr %this.addr, align 8
  store ptr %c, ptr %c.addr, align 8
  %this1 = load ptr, ptr %this.addr, align 8
  %m_first = getelementptr inbounds %"class.bv::solver::eq_occurs_it", ptr %this1, i32 0, i32 0
  %0 = load ptr, ptr %c.addr, align 8
  store ptr %0, ptr %m_first, align 8
  ret void
}

; Function Attrs: mustprogress nounwind uwtable
define linkonce_odr hidden void @_ZN2bv6solver12eqs_iteratorC2EPNS0_9eq_occursE(ptr noundef nonnull align 8 dereferenceable(8) %this, ptr noundef %o) unnamed_addr #4 comdat align 2 {
entry:
  %this.addr = alloca ptr, align 8
  %o.addr = alloca ptr, align 8
  store ptr %this, ptr %this.addr, align 8
  store ptr %o, ptr %o.addr, align 8
  %this1 = load ptr, ptr %this.addr, align 8
  %o2 = getelementptr inbounds %"class.bv::solver::eqs_iterator", ptr %this1, i32 0, i32 0
  %0 = load ptr, ptr %o.addr, align 8
  store ptr %0, ptr %o2, align 8
  ret void
}

; Function Attrs: mustprogress nounwind uwtable
define linkonce_odr hidden noundef zeroext i1 @_ZNK2bv6solver10var_pos_iteqERKS1_(ptr noundef nonnull align 8 dereferenceable(8) %this, ptr noundef nonnull align 8 dereferenceable(8) %other) #4 comdat align 2 {
entry:
  %this.addr = alloca ptr, align 8
  %other.addr = alloca ptr, align 8
  store ptr %this, ptr %this.addr, align 8
  store ptr %other, ptr %other.addr, align 8
  %this1 = load ptr, ptr %this.addr, align 8
  %m_first = getelementptr inbounds %"class.bv::solver::var_pos_it", ptr %this1, i32 0, i32 0
  %0 = load ptr, ptr %m_first, align 8
  %1 = load ptr, ptr %other.addr, align 8
  %m_first2 = getelementptr inbounds %"class.bv::solver::var_pos_it", ptr %1, i32 0, i32 0
  %2 = load ptr, ptr %m_first2, align 8
  %cmp = icmp eq ptr %0, %2
  ret i1 %cmp
}

; Function Attrs: mustprogress nounwind uwtable
define linkonce_odr hidden void @_ZN2bv6solver10var_pos_itC2EPNS0_11var_pos_occE(ptr noundef nonnull align 8 dereferenceable(8) %this, ptr noundef %c) unnamed_addr #4 comdat align 2 {
entry:
  %this.addr = alloca ptr, align 8
  %c.addr = alloca ptr, align 8
  store ptr %this, ptr %this.addr, align 8
  store ptr %c, ptr %c.addr, align 8
  %this1 = load ptr, ptr %this.addr, align 8
  %m_first = getelementptr inbounds %"class.bv::solver::var_pos_it", ptr %this1, i32 0, i32 0
  %0 = load ptr, ptr %c.addr, align 8
  store ptr %0, ptr %m_first, align 8
  ret void
}

; Function Attrs: mustprogress nounwind uwtable
define linkonce_odr hidden noundef nonnull align 8 dereferenceable(8) ptr @_ZN2bv6solver12eq_occurs_itppEv(ptr noundef nonnull align 8 dereferenceable(8) %this) #4 comdat align 2 {
entry:
  %this.addr = alloca ptr, align 8
  store ptr %this, ptr %this.addr, align 8
  %this1 = load ptr, ptr %this.addr, align 8
  %m_first = getelementptr inbounds %"class.bv::solver::eq_occurs_it", ptr %this1, i32 0, i32 0
  %0 = load ptr, ptr %m_first, align 8
  %m_next = getelementptr inbounds %"struct.bv::solver::eq_occurs", ptr %0, i32 0, i32 7
  %1 = load ptr, ptr %m_next, align 8
  %m_first2 = getelementptr inbounds %"class.bv::solver::eq_occurs_it", ptr %this1, i32 0, i32 0
  store ptr %1, ptr %m_first2, align 8
  ret ptr %this1
}

; Function Attrs: mustprogress nounwind uwtable
define linkonce_odr hidden noundef nonnull align 8 dereferenceable(48) ptr @_ZN2bv6solver12eq_occurs_itdeEv(ptr noundef nonnull align 8 dereferenceable(8) %this) #4 comdat align 2 {
entry:
  %this.addr = alloca ptr, align 8
  store ptr %this, ptr %this.addr, align 8
  %this1 = load ptr, ptr %this.addr, align 8
  %m_first = getelementptr inbounds %"class.bv::solver::eq_occurs_it", ptr %this1, i32 0, i32 0
  %0 = load ptr, ptr %m_first, align 8
  ret ptr %0
}

; Function Attrs: mustprogress uwtable
define linkonce_odr hidden noundef zeroext i1 @_ZNK2bv6solver12eq_occurs_itneERKS1_(ptr noundef nonnull align 8 dereferenceable(8) %this, ptr noundef nonnull align 8 dereferenceable(8) %other) #5 comdat align 2 {
entry:
  %this.addr = alloca ptr, align 8
  %other.addr = alloca ptr, align 8
  store ptr %this, ptr %this.addr, align 8
  store ptr %other, ptr %other.addr, align 8
  %this1 = load ptr, ptr %this.addr, align 8
  %0 = load ptr, ptr %other.addr, align 8
  %call = call noundef zeroext i1 @_ZNK2bv6solver12eq_occurs_iteqERKS1_(ptr noundef nonnull align 8 dereferenceable(8) %this1, ptr noundef nonnull align 8 dereferenceable(8) %0)
  %lnot = xor i1 %call, true
  ret i1 %lnot
}

; Function Attrs: mustprogress uwtable
define linkonce_odr hidden ptr @_ZNK2bv6solver12eqs_iterator3endEv(ptr noundef nonnull align 8 dereferenceable(8) %this) #5 comdat align 2 {
entry:
  %retval = alloca %"class.bv::solver::eq_occurs_it", align 8
  %this.addr = alloca ptr, align 8
  store ptr %this, ptr %this.addr, align 8
  call void @_ZN2bv6solver12eq_occurs_itC2EPNS0_9eq_occursE(ptr noundef nonnull align 8 dereferenceable(8) %retval, ptr noundef null)
  %coerce.dive = getelementptr inbounds %"class.bv::solver::eq_occurs_it", ptr %retval, i32 0, i32 0
  %0 = load ptr, ptr %coerce.dive, align 8
  ret ptr %0
}

; Function Attrs: mustprogress uwtable
define linkonce_odr hidden ptr @_ZNK2bv6solver12eqs_iterator5beginEv(ptr noundef nonnull align 8 dereferenceable(8) %this) #5 comdat align 2 {
entry:
  %retval = alloca %"class.bv::solver::eq_occurs_it", align 8
  %this.addr = alloca ptr, align 8
  store ptr %this, ptr %this.addr, align 8
  %this1 = load ptr, ptr %this.addr, align 8
  %o = getelementptr inbounds %"class.bv::solver::eqs_iterator", ptr %this1, i32 0, i32 0
  %0 = load ptr, ptr %o, align 8
  call void @_ZN2bv6solver12eq_occurs_itC2EPNS0_9eq_occursE(ptr noundef nonnull align 8 dereferenceable(8) %retval, ptr noundef %0)
  %coerce.dive = getelementptr inbounds %"class.bv::solver::eq_occurs_it", ptr %retval, i32 0, i32 0
  %1 = load ptr, ptr %coerce.dive, align 8
  ret ptr %1
}

; Function Attrs: mustprogress uwtable
define linkonce_odr hidden ptr @_ZNK2bv6solver4atom3eqsEv(ptr noundef nonnull align 8 dereferenceable(40) %this) #5 comdat align 2 {
entry:
  %retval = alloca %"class.bv::solver::eqs_iterator", align 8
  %this.addr = alloca ptr, align 8
  store ptr %this, ptr %this.addr, align 8
  %this1 = load ptr, ptr %this.addr, align 8
  %m_eqs = getelementptr inbounds %"struct.bv::solver::atom", ptr %this1, i32 0, i32 1
  %0 = load ptr, ptr %m_eqs, align 8
  call void @_ZN2bv6solver12eqs_iteratorC2EPNS0_9eq_occursE(ptr noundef nonnull align 8 dereferenceable(8) %retval, ptr noundef %0)
  %coerce.dive = getelementptr inbounds %"class.bv::solver::eqs_iterator", ptr %retval, i32 0, i32 0
  %1 = load ptr, ptr %coerce.dive, align 8
  ret ptr %1
}

; Function Attrs: mustprogress nounwind uwtable
define linkonce_odr hidden noundef nonnull align 8 dereferenceable(8) ptr @_ZN2bv6solver10var_pos_itppEv(ptr noundef nonnull align 8 dereferenceable(8) %this) #4 comdat align 2 {
entry:
  %this.addr = alloca ptr, align 8
  store ptr %this, ptr %this.addr, align 8
  %this1 = load ptr, ptr %this.addr, align 8
  %m_first = getelementptr inbounds %"class.bv::solver::var_pos_it", ptr %this1, i32 0, i32 0
  %0 = load ptr, ptr %m_first, align 8
  %m_next = getelementptr inbounds %"struct.bv::solver::var_pos_occ", ptr %0, i32 0, i32 1
  %1 = load ptr, ptr %m_next, align 8
  %m_first2 = getelementptr inbounds %"class.bv::solver::var_pos_it", ptr %this1, i32 0, i32 0
  store ptr %1, ptr %m_first2, align 8
  ret ptr %this1
}

; Function Attrs: mustprogress nounwind uwtable
define linkonce_odr hidden i64 @_ZN2bv6solver10var_pos_itdeEv(ptr noundef nonnull align 8 dereferenceable(8) %this) #4 comdat align 2 {
entry:
  %retval = alloca %"struct.std::pair.239", align 4
  %this.addr = alloca ptr, align 8
  store ptr %this, ptr %this.addr, align 8
  %this1 = load ptr, ptr %this.addr, align 8
  %m_first = getelementptr inbounds %"class.bv::solver::var_pos_it", ptr %this1, i32 0, i32 0
  %0 = load ptr, ptr %m_first, align 8
  %m_vp = getelementptr inbounds %"struct.bv::solver::var_pos_occ", ptr %0, i32 0, i32 0
  call void @llvm.memcpy.p0.p0.i64(ptr align 4 %retval, ptr align 8 %m_vp, i64 8, i1 false)
  %1 = load i64, ptr %retval, align 4
  ret i64 %1
}

; Function Attrs: mustprogress uwtable
define linkonce_odr hidden noundef zeroext i1 @_ZNK2bv6solver10var_pos_itneERKS1_(ptr noundef nonnull align 8 dereferenceable(8) %this, ptr noundef nonnull align 8 dereferenceable(8) %other) #5 comdat align 2 {
entry:
  %this.addr = alloca ptr, align 8
  %other.addr = alloca ptr, align 8
  store ptr %this, ptr %this.addr, align 8
  store ptr %other, ptr %other.addr, align 8
  %this1 = load ptr, ptr %this.addr, align 8
  %0 = load ptr, ptr %other.addr, align 8
  %call = call noundef zeroext i1 @_ZNK2bv6solver10var_pos_iteqERKS1_(ptr noundef nonnull align 8 dereferenceable(8) %this1, ptr noundef nonnull align 8 dereferenceable(8) %0)
  %lnot = xor i1 %call, true
  ret i1 %lnot
}

; Function Attrs: mustprogress uwtable
define linkonce_odr hidden ptr @_ZNK2bv6solver4atom3endEv(ptr noundef nonnull align 8 dereferenceable(40) %this) #5 comdat align 2 {
entry:
  %retval = alloca %"class.bv::solver::var_pos_it", align 8
  %this.addr = alloca ptr, align 8
  store ptr %this, ptr %this.addr, align 8
  call void @_ZN2bv6solver10var_pos_itC2EPNS0_11var_pos_occE(ptr noundef nonnull align 8 dereferenceable(8) %retval, ptr noundef null)
  %coerce.dive = getelementptr inbounds %"class.bv::solver::var_pos_it", ptr %retval, i32 0, i32 0
  %0 = load ptr, ptr %coerce.dive, align 8
  ret ptr %0
}

; Function Attrs: mustprogress uwtable
define linkonce_odr hidden ptr @_ZNK2bv6solver4atom5beginEv(ptr noundef nonnull align 8 dereferenceable(40) %this) #5 comdat align 2 {
entry:
  %retval = alloca %"class.bv::solver::var_pos_it", align 8
  %this.addr = alloca ptr, align 8
  store ptr %this, ptr %this.addr, align 8
  %this1 = load ptr, ptr %this.addr, align 8
  %m_occs = getelementptr inbounds %"struct.bv::solver::atom", ptr %this1, i32 0, i32 2
  %0 = load ptr, ptr %m_occs, align 8
  call void @_ZN2bv6solver10var_pos_itC2EPNS0_11var_pos_occE(ptr noundef nonnull align 8 dereferenceable(8) %retval, ptr noundef %0)
  %coerce.dive = getelementptr inbounds %"class.bv::solver::var_pos_it", ptr %retval, i32 0, i32 0
  %1 = load ptr, ptr %coerce.dive, align 8
  ret ptr %1
}

; Function Attrs: mustprogress uwtable
define hidden noundef nonnull align 8 dereferenceable(8) ptr @_ZNK2bv6solver7displayERSoRKNS0_4atomE(ptr noundef nonnull align 8 dereferenceable(640) %this, ptr noundef nonnull align 8 dereferenceable(8) %out, ptr noundef nonnull align 8 dereferenceable(40) %a) #5 align 2 {
entry:
  %this.addr = alloca ptr, align 8
  %out.addr = alloca ptr, align 8
  %a.addr = alloca ptr, align 8
  %__range1 = alloca ptr, align 8
  %__begin1 = alloca %"class.bv::solver::var_pos_it", align 8
  %__end1 = alloca %"class.bv::solver::var_pos_it", align 8
  %vp = alloca %"struct.std::pair.239", align 4
  %__range113 = alloca ptr, align 8
  %ref.tmp = alloca %"class.bv::solver::eqs_iterator", align 8
  %__begin116 = alloca %"class.bv::solver::eq_occurs_it", align 8
  %__end119 = alloca %"class.bv::solver::eq_occurs_it", align 8
  %e = alloca %"struct.bv::solver::eq_occurs", align 8
  store ptr %this, ptr %this.addr, align 8
  store ptr %out, ptr %out.addr, align 8
  store ptr %a, ptr %a.addr, align 8
  %0 = load ptr, ptr %out.addr, align 8
  %1 = load ptr, ptr %a.addr, align 8
  %m_bv = getelementptr inbounds %"struct.bv::solver::atom", ptr %1, i32 0, i32 0
  %2 = load i32, ptr %m_bv, align 8
  %call = call noundef nonnull align 8 dereferenceable(8) ptr @_ZNSolsEj(ptr noundef nonnull align 8 dereferenceable(8) %0, i32 noundef %2)
  %call2 = call noundef nonnull align 8 dereferenceable(8) ptr @_ZStlsISt11char_traitsIcEERSt13basic_ostreamIcT_ES5_PKc(ptr noundef nonnull align 8 dereferenceable(8) %call, ptr noundef @.str.12)
  %3 = load ptr, ptr %a.addr, align 8
  store ptr %3, ptr %__range1, align 8
  %4 = load ptr, ptr %__range1, align 8
  %call3 = call ptr @_ZNK2bv6solver4atom5beginEv(ptr noundef nonnull align 8 dereferenceable(40) %4)
  %coerce.dive = getelementptr inbounds %"class.bv::solver::var_pos_it", ptr %__begin1, i32 0, i32 0
  store ptr %call3, ptr %coerce.dive, align 8
  %5 = load ptr, ptr %__range1, align 8
  %call4 = call ptr @_ZNK2bv6solver4atom3endEv(ptr noundef nonnull align 8 dereferenceable(40) %5)
  %coerce.dive5 = getelementptr inbounds %"class.bv::solver::var_pos_it", ptr %__end1, i32 0, i32 0
  store ptr %call4, ptr %coerce.dive5, align 8
  br label %for.cond

for.cond:                                         ; preds = %for.inc, %entry
  %call6 = call noundef zeroext i1 @_ZNK2bv6solver10var_pos_itneERKS1_(ptr noundef nonnull align 8 dereferenceable(8) %__begin1, ptr noundef nonnull align 8 dereferenceable(8) %__end1)
  br i1 %call6, label %for.body, label %for.end

for.body:                                         ; preds = %for.cond
  %call7 = call i64 @_ZN2bv6solver10var_pos_itdeEv(ptr noundef nonnull align 8 dereferenceable(8) %__begin1)
  store i64 %call7, ptr %vp, align 4
  %6 = load ptr, ptr %out.addr, align 8
  %first = getelementptr inbounds %"struct.std::pair.239", ptr %vp, i32 0, i32 0
  %7 = load i32, ptr %first, align 4
  %call8 = call noundef nonnull align 8 dereferenceable(8) ptr @_ZNSolsEi(ptr noundef nonnull align 8 dereferenceable(8) %6, i32 noundef %7)
  %call9 = call noundef nonnull align 8 dereferenceable(8) ptr @_ZStlsISt11char_traitsIcEERSt13basic_ostreamIcT_ES5_PKc(ptr noundef nonnull align 8 dereferenceable(8) %call8, ptr noundef @.str.10)
  %second = getelementptr inbounds %"struct.std::pair.239", ptr %vp, i32 0, i32 1
  %8 = load i32, ptr %second, align 4
  %call10 = call noundef nonnull align 8 dereferenceable(8) ptr @_ZNSolsEj(ptr noundef nonnull align 8 dereferenceable(8) %call9, i32 noundef %8)
  %call11 = call noundef nonnull align 8 dereferenceable(8) ptr @_ZStlsISt11char_traitsIcEERSt13basic_ostreamIcT_ES5_PKc(ptr noundef nonnull align 8 dereferenceable(8) %call10, ptr noundef @.str.37)
  br label %for.inc

for.inc:                                          ; preds = %for.body
  %call12 = call noundef nonnull align 8 dereferenceable(8) ptr @_ZN2bv6solver10var_pos_itppEv(ptr noundef nonnull align 8 dereferenceable(8) %__begin1)
  br label %for.cond

for.end:                                          ; preds = %for.cond
  %9 = load ptr, ptr %a.addr, align 8
  %call14 = call ptr @_ZNK2bv6solver4atom3eqsEv(ptr noundef nonnull align 8 dereferenceable(40) %9)
  %coerce.dive15 = getelementptr inbounds %"class.bv::solver::eqs_iterator", ptr %ref.tmp, i32 0, i32 0
  store ptr %call14, ptr %coerce.dive15, align 8
  store ptr %ref.tmp, ptr %__range113, align 8
  %10 = load ptr, ptr %__range113, align 8
  %call17 = call ptr @_ZNK2bv6solver12eqs_iterator5beginEv(ptr noundef nonnull align 8 dereferenceable(8) %10)
  %coerce.dive18 = getelementptr inbounds %"class.bv::solver::eq_occurs_it", ptr %__begin116, i32 0, i32 0
  store ptr %call17, ptr %coerce.dive18, align 8
  %11 = load ptr, ptr %__range113, align 8
  %call20 = call ptr @_ZNK2bv6solver12eqs_iterator3endEv(ptr noundef nonnull align 8 dereferenceable(8) %11)
  %coerce.dive21 = getelementptr inbounds %"class.bv::solver::eq_occurs_it", ptr %__end119, i32 0, i32 0
  store ptr %call20, ptr %coerce.dive21, align 8
  br label %for.cond22

for.cond22:                                       ; preds = %for.inc30, %for.end
  %call23 = call noundef zeroext i1 @_ZNK2bv6solver12eq_occurs_itneERKS1_(ptr noundef nonnull align 8 dereferenceable(8) %__begin116, ptr noundef nonnull align 8 dereferenceable(8) %__end119)
  br i1 %call23, label %for.body24, label %for.end32

for.body24:                                       ; preds = %for.cond22
  %call25 = call noundef nonnull align 8 dereferenceable(48) ptr @_ZN2bv6solver12eq_occurs_itdeEv(ptr noundef nonnull align 8 dereferenceable(8) %__begin116)
  call void @llvm.memcpy.p0.p0.i64(ptr align 8 %e, ptr align 8 %call25, i64 48, i1 false)
  %12 = load ptr, ptr %out.addr, align 8
  %m_bv1 = getelementptr inbounds %"struct.bv::solver::eq_occurs", ptr %e, i32 0, i32 0
  %13 = load i32, ptr %m_bv1, align 8
  %call26 = call noundef nonnull align 8 dereferenceable(8) ptr @_ZNSolsEj(ptr noundef nonnull align 8 dereferenceable(8) %12, i32 noundef %13)
  %call27 = call noundef nonnull align 8 dereferenceable(8) ptr @_ZStlsISt11char_traitsIcEERSt13basic_ostreamIcT_ES5_PKc(ptr noundef nonnull align 8 dereferenceable(8) %call26, ptr noundef @.str.5)
  %m_bv2 = getelementptr inbounds %"struct.bv::solver::eq_occurs", ptr %e, i32 0, i32 1
  %14 = load i32, ptr %m_bv2, align 4
  %call28 = call noundef nonnull align 8 dereferenceable(8) ptr @_ZNSolsEj(ptr noundef nonnull align 8 dereferenceable(8) %call27, i32 noundef %14)
  %call29 = call noundef nonnull align 8 dereferenceable(8) ptr @_ZStlsISt11char_traitsIcEERSt13basic_ostreamIcT_ES5_PKc(ptr noundef nonnull align 8 dereferenceable(8) %call28, ptr noundef @.str.12)
  br label %for.inc30

for.inc30:                                        ; preds = %for.body24
  %call31 = call noundef nonnull align 8 dereferenceable(8) ptr @_ZN2bv6solver12eq_occurs_itppEv(ptr noundef nonnull align 8 dereferenceable(8) %__begin116)
  br label %for.cond22

for.end32:                                        ; preds = %for.cond22
  %15 = load ptr, ptr %out.addr, align 8
  ret ptr %15
}