; Function Attrs: mustprogress uwtable
define hidden noundef nonnull align 8 dereferenceable(8) ptr @_ZNK2bv6solver7displayERSoRKNS0_4atomE(ptr nocapture noundef nonnull readnone align 8 dereferenceable(640) %this, ptr noundef nonnull returned align 8 dereferenceable(8) %out, ptr nocapture noundef nonnull readonly align 8 dereferenceable(40) %a) local_unnamed_addr #3 align 2 {
entry:
  %0 = load i32, ptr %a, align 8
  %call = tail call noundef nonnull align 8 dereferenceable(8) ptr @_ZNSolsEj(ptr noundef nonnull align 8 dereferenceable(8) %out, i32 noundef %0)
  %call2 = tail call noundef nonnull align 8 dereferenceable(8) ptr @_ZStlsISt11char_traitsIcEERSt13basic_ostreamIcT_ES5_PKc(ptr noundef nonnull align 8 dereferenceable(8) %call, ptr noundef nonnull @.str.12)
  %m_occs.i = getelementptr inbounds i8, ptr %a, i64 16
  %__begin1.sroa.0.014 = load ptr, ptr %m_occs.i, align 8
  %cmp.i.i.not15 = icmp eq ptr %__begin1.sroa.0.014, null
  br i1 %cmp.i.i.not15, label %for.end, label %for.body

for.body:                                         ; preds = %entry, %for.body
  %__begin1.sroa.0.016 = phi ptr [ %__begin1.sroa.0.0, %for.body ], [ %__begin1.sroa.0.014, %entry ]
  %retval.sroa.0.0.copyload.i = load i64, ptr %__begin1.sroa.0.016, align 8
  %vp.sroa.0.0.extract.trunc = trunc i64 %retval.sroa.0.0.copyload.i to i32
  %vp.sroa.2.0.extract.shift = lshr i64 %retval.sroa.0.0.copyload.i, 32
  %vp.sroa.2.0.extract.trunc = trunc i64 %vp.sroa.2.0.extract.shift to i32
  %call8 = tail call noundef nonnull align 8 dereferenceable(8) ptr @_ZNSolsEi(ptr noundef nonnull align 8 dereferenceable(8) %out, i32 noundef %vp.sroa.0.0.extract.trunc)
  %call9 = tail call noundef nonnull align 8 dereferenceable(8) ptr @_ZStlsISt11char_traitsIcEERSt13basic_ostreamIcT_ES5_PKc(ptr noundef nonnull align 8 dereferenceable(8) %call8, ptr noundef nonnull @.str.10)
  %call10 = tail call noundef nonnull align 8 dereferenceable(8) ptr @_ZNSolsEj(ptr noundef nonnull align 8 dereferenceable(8) %call9, i32 noundef %vp.sroa.2.0.extract.trunc)
  %call11 = tail call noundef nonnull align 8 dereferenceable(8) ptr @_ZStlsISt11char_traitsIcEERSt13basic_ostreamIcT_ES5_PKc(ptr noundef nonnull align 8 dereferenceable(8) %call10, ptr noundef nonnull @.str.37)
  %m_next.i = getelementptr inbounds i8, ptr %__begin1.sroa.0.016, i64 8
  %__begin1.sroa.0.0 = load ptr, ptr %m_next.i, align 8
  %cmp.i.i.not = icmp eq ptr %__begin1.sroa.0.0, null
  br i1 %cmp.i.i.not, label %for.end, label %for.body

for.end:                                          ; preds = %for.body, %entry
  %m_eqs.i = getelementptr inbounds i8, ptr %a, i64 8
  %__begin116.sroa.0.017 = load ptr, ptr %m_eqs.i, align 8
  %cmp.i.i8.not18 = icmp eq ptr %__begin116.sroa.0.017, null
  br i1 %cmp.i.i8.not18, label %for.end32, label %for.body24

for.body24:                                       ; preds = %for.end, %for.body24
  %__begin116.sroa.0.019 = phi ptr [ %__begin116.sroa.0.0, %for.body24 ], [ %__begin116.sroa.0.017, %for.end ]
  %e.sroa.0.0.copyload = load i32, ptr %__begin116.sroa.0.019, align 8
  %e.sroa.2.0.call25.sroa_idx = getelementptr inbounds i8, ptr %__begin116.sroa.0.019, i64 4
  %e.sroa.2.0.copyload = load i32, ptr %e.sroa.2.0.call25.sroa_idx, align 4
  %call26 = tail call noundef nonnull align 8 dereferenceable(8) ptr @_ZNSolsEj(ptr noundef nonnull align 8 dereferenceable(8) %out, i32 noundef %e.sroa.0.0.copyload)
  %call27 = tail call noundef nonnull align 8 dereferenceable(8) ptr @_ZStlsISt11char_traitsIcEERSt13basic_ostreamIcT_ES5_PKc(ptr noundef nonnull align 8 dereferenceable(8) %call26, ptr noundef nonnull @.str.5)
  %call28 = tail call noundef nonnull align 8 dereferenceable(8) ptr @_ZNSolsEj(ptr noundef nonnull align 8 dereferenceable(8) %call27, i32 noundef %e.sroa.2.0.copyload)
  %call29 = tail call noundef nonnull align 8 dereferenceable(8) ptr @_ZStlsISt11char_traitsIcEERSt13basic_ostreamIcT_ES5_PKc(ptr noundef nonnull align 8 dereferenceable(8) %call28, ptr noundef nonnull @.str.12)
  %m_next.i9 = getelementptr inbounds i8, ptr %__begin116.sroa.0.019, i64 32
  %__begin116.sroa.0.0 = load ptr, ptr %m_next.i9, align 8
  %cmp.i.i8.not = icmp eq ptr %__begin116.sroa.0.0, null
  br i1 %cmp.i.i8.not, label %for.end32, label %for.body24

for.end32:                                        ; preds = %for.body24, %for.end
  ret ptr %out
}